Certificate:
    Data:
        Version: 3 (0x2)
        Serial Number: 809 (0x329)
    Signature Algorithm: sha512WithRSAEncryption
        Issuer: C=IT, O=IGI, CN=Test CA
        Validity
            Not Before: Jun 18 10:09:07 2019 GMT
            Not After : Jun 15 10:09:07 2029 GMT
        Subject: C=IT, O=IGI, CN=cache.example
        Subject Public Key Info:
            Public Key Algorithm: rsaEncryption
                Public-Key: (2048 bit)
                Modulus:
                    00:ca:64:c7:e9:6e:3a:c3:94:da:37:24:b1:78:77:
                    77:a4:0c:47:a1:87:89:64:36:b8:22:cc:4d:4c:a1:
                    d3:6c:61:5e:9c:a4:7d:1a:35:a2:aa:58:22:e0:b9:
                    3e:07:2c:61:00:90:41:af:8f:99:b6:fb:a9:73:98:
                    72:52:92:94:a1:cb:18:a1:9f:ac:fc:1c:6c:f7:1a:
                    3d:97:fb:24:8d:e3:a9:81:a4:fc:f5:79:b3:8f:e0:
                    35:21:f7:50:b5:6c:07:67:e9:9c:b6:82:af:19:e4:
                    eb:16:d8:69:dd:ed:e4:b0:da:63:e5:5e:5f:9e:0e:
                    70:07:df:75:24:87:66:ac:9c:da:50:f9:7b:66:30:
                    fd:6a:7d:b7:22:87:79:47:12:43:fc:02:c0:ee:f1:
                    97:39:bd:ce:fc:b3:36:52:7c:14:3b:f9:99:af:c7:
                    1e:24:03:1e:27:03:bb:3d:58:b7:0e:e9:e6:46:45:
                    a5:52:9e:8b:5e:25:e7:3e:30:f9:a3:4b:c5:2a:1e:
                    2e:33:09:6e:64:08:5f:38:80:00:f5:ea:b7:97:de:
                    69:fa:e9:e5:cf:d3:b9:a9:64:db:88:ff:4c:ff:6a:
                    3e:96:38:cd:65:4d:9e:75:49:ba:d4:48:25:4f:d6:
                    06:35:64:45:f9:a2:67:14:41:e9:01:f1:4a:b9:d1:
                    99:a1
                Exponent: 65537 (0x10001)
        X509v3 extensions:
            X509v3 Basic Constraints: critical
                CA:FALSE
            X509v3 Subject Key Identifier: 
                3D:10:FE:58:03:E9:F9:D9:E8:33:F8:8A:7A:27:E2:73:9B:48:02:7E
            X509v3 Key Usage: critical
                Digital Signature, Non Repudiation, Key Encipherment
            X509v3 Extended Key Usage: 
                TLS Web Server Authentication, TLS Web Client Authentication, Microsoft Server Gated Crypto, Netscape Server Gated Crypto, E-mail Protection
            X509v3 Authority Key Identifier: 
                keyid:91:77:36:7B:2E:B4:69:F3:27:EA:B7:F6:08:8B:4A:23:A2:11:49:C6

            X509v3 Subject Alternative Name: 
                DNS:cache.example
    Signature Algorithm: sha512WithRSAEncryption
         d1:4c:84:fe:f3:f7:5f:0b:1e:e3:50:b0:14:c1:ca:ed:55:a9:
         e9:f9:df:68:0c:b9:04:cd:15:74:38:0b:52:75:84:ba:35:d8:
         fa:eb:08:5d:b0:e6:75:2e:d0:62:c4:22:13:62:52:07:2a:b2:
         e4:91:4e:5b:ad:de:36:c5:8d:d2:ac:ad:29:4e:60:e5:40:51:
         36:c9:03:73:b4:7c:af:58:0f:4c:48:ea:27:b2:db:7c:c4:61:
         fc:63:89:18:2a:c4:ae:3d:bf:7f:5a:9b:3a:32:69:a1:bc:ca:
         3f:ed:e3:5a:02:34:58:d5:6f:16:47:7b:74:1d:41:ad:dd:90:
         5c:b8:d8:e4:93:b1:78:27:d9:2c:3d:01:f5:e4:86:2d:10:53:
         be:4b:01:8f:85:cc:0a:24:f9:10:50:07:43:37:43:0f:19:e1:
         de:37:b8:05:53:ac:0b:24:f2:51:62:6e:de:39:db:66:ef:69:
         35:82:f9:d1:16:a0:df:9f:55:41:16:ed:bf:81:87:65:71:bd:
         4e:10:0d:ef:9b:92:29:c7:ee:15:6a:3a:ad:80:4a:9e:b7:b4:
         93:55:82:81:f0:b5:d5:86:e6:c0:a9:b4:76:a4:b9:d6:8e:ef:
         fa:69:07:25:c6:6e:7f:9f:cb:a4:75:16:06:fe:c0:b9:26:3e:
         c7:ee:e6:73
-----BEGIN CERTIFICATE-----
MIIDmDCCAoCgAwIBAgICAykwDQYJKoZIhvcNAQENBQAwLTELMAkGA1UEBhMCSVQx
DDAKBgNVBAoMA0lHSTEQMA4GA1UEAwwHVGVzdCBDQTAeFw0xOTA2MTgxMDA5MDda
Fw0yOTA2MTUxMDA5MDdaMDMxCzAJBgNVBAYTAklUMQwwCgYDVQQKDANJR0kxFjAU
BgNVBAMMDWNhY2hlLmV4YW1wbGUwggEiMA0GCSqGSIb3DQEBAQUAA4IBDwAwggEK
AoIBAQDKZMfpbjrDlNo3JLF4d3ekDEehh4lkNrgizE1ModNsYV6cpH0aNaKqWCLg
uT4HLGEAkEGvj5m2+6lzmHJSkpShyxihn6z8HGz3Gj2X+ySN46mBpPz1ebOP4DUh
91C1bAdn6Zy2gq8Z5OsW2Gnd7eSw2mPlXl+eDnAH33Ukh2asnNpQ+XtmMP1qfbci
h3lHEkP8AsDu8Zc5vc78szZSfBQ7+Zmvxx4kAx4nA7s9WLcO6eZGRaVSnoteJec+
MPmjS8UqHi4zCW5kCF84gAD16reX3mn66eXP07mpZNuI/0z/aj6WOM1lTZ51SbrU
SCVP1gY1ZEX5omcUQekB8Uq50ZmhAgMBAAGjgbswgbgwDAYDVR0TAQH/BAIwADAd
BgNVHQ4EFgQUPRD+WAPp+dnoM/iKeific5tIAn4wDgYDVR0PAQH/BAQDAgXgMD4G
A1UdJQQ3MDUGCCsGAQUFBwMBBggrBgEFBQcDAgYKKwYBBAGCNwoDAwYJYIZIAYb4
QgQBBggrBgEFBQcDBDAfBgNVHSMEGDAWgBSRdzZ7LrRp8yfqt/YIi0ojohFJxjAY
BgNVHREEETAPgg1jYWNoZS5leGFtcGxlMA0GCSqGSIb3DQEBDQUAA4IBAQDRTIT+
8/dfCx7jULAUwcrtVanp+d9oDLkEzRV0OAtSdYS6Ndj66whdsOZ1LtBixCITYlIH
KrLkkU5brd42xY3SrK0pTmDlQFE2yQNztHyvWA9MSOonstt8xGH8Y4kYKsSuPb9/
Wps6MmmhvMo/7eNaAjRY1W8WR3t0HUGt3ZBcuNjkk7F4J9ksPQH15IYtEFO+SwGP
hcwKJPkQUAdDN0MPGeHeN7gFU6wLJPJRYm7eOdtm72k1gvnRFqDfn1VBFu2/gYdl
cb1OEA3vm5Ipx+4VajqtgEqet7STVYKB8LXVhubAqbR2pLnWju/6aQclxm5/n8uk
dRYG/sC5Jj7H7uZz
-----END CERTIFICATE-----
