Certificate:
    Data:
        Version: 3 (0x2)
        Serial Number:
            4b:dc:03:91:e6:08:70:03:41:89:9e:8d:30:30:79:b8
    Signature Algorithm: sha512WithRSAEncryption
        Issuer: C=IT, O=Acme, OU=Acme, CN=Test CA
        Validity
            Not Before: Aug 27 14:26:18 2018 GMT
            Not After : May 26 14:26:18 2028 GMT
        Subject: C=IT, O=Acme, OU=Acme, CN=myserver
        Subject Public Key Info:
            Public Key Algorithm: rsaEncryption
                Public-Key: (2048 bit)
                Modulus:
                    00:bf:27:6a:f5:70:52:26:4b:33:a9:9c:1e:5a:15:
                    9e:57:5a:62:fa:f2:d7:49:d0:6f:c2:04:66:ba:b1:
                    d8:c5:87:e1:76:90:ca:29:b5:80:73:13:be:67:55:
                    51:fc:1e:66:ef:ea:90:9b:db:fa:1a:d1:ab:01:63:
                    eb:fb:a2:93:20:19:06:b0:20:14:0d:4c:79:1f:72:
                    9b:c6:8d:33:4f:28:8a:db:37:7c:39:fa:bc:a3:49:
                    c6:55:9d:30:fe:e2:34:78:6d:fa:73:82:ea:b8:cc:
                    3e:79:b6:d0:65:96:49:2f:21:77:67:56:a7:47:f5:
                    d1:46:2d:98:1a:b9:8d:00:14:1c:f1:60:c0:c9:74:
                    86:f5:24:44:cb:2c:58:58:9d:cd:fc:34:e5:89:6e:
                    e0:b9:82:f5:e3:5d:8a:c7:1b:2a:6a:85:c1:ad:23:
                    e4:39:e7:86:8b:e6:2d:32:c3:ff:8e:58:8d:85:8b:
                    f1:2b:c5:73:d8:14:24:a3:2d:e5:62:d9:b4:84:e6:
                    35:31:b3:2a:34:ca:c6:54:f9:3f:1d:57:d9:2a:0b:
                    8a:96:70:b7:61:bf:8f:d5:0b:94:5c:b8:88:2a:e0:
                    17:9a:fb:75:c5:4c:da:c9:b2:92:44:b4:0f:f2:3b:
                    2f:3c:ab:26:86:d5:36:75:85:02:0e:7d:60:fd:3e:
                    35:49
                Exponent: 65537 (0x10001)
        X509v3 extensions:
            X509v3 Basic Constraints: critical
                CA:FALSE
            Netscape Cert Type: 
                SSL Client, S/MIME
            X509v3 Subject Key Identifier: 
                16:63:A9:B4:AB:F0:A9:16:B1:64:42:8C:7B:97:80:3E:0C:47:D9:65
            X509v3 Authority Key Identifier: 
                keyid:68:A9:BC:66:26:59:C6:93:FD:12:E3:A6:1F:46:ED:83:EA:B4:E9:3D
                DirName:/C=IT/O=Acme/OU=Acme/CN=Test CA
                serial:A1:F6:0B:00:CE:39:8E:FC

            X509v3 Extended Key Usage: 
                TLS Web Client Authentication, E-mail Protection
            X509v3 Key Usage: critical
                Digital Signature, Non Repudiation, Key Encipherment, Data Encipherment
    Signature Algorithm: sha512WithRSAEncryption
         58:ae:0a:c7:3c:00:d1:2e:b5:24:07:f8:ba:0c:98:7d:ae:dc:
         06:d4:a9:a9:1d:3c:d3:ac:04:35:55:b1:de:ae:7e:61:50:83:
         fd:11:b7:6d:4a:bb:c3:59:37:53:0f:92:3b:7c:82:a7:ef:31:
         e1:06:cd:75:b3:f1:83:f0:76:6c:2d:f9:5f:c4:2c:77:97:a3:
         d9:19:b9:5e:cf:68:d6:a6:3a:04:79:f0:e7:57:be:30:8c:fc:
         4b:58:6d:a6:e0:97:f8:4d:f9:c1:0c:39:ac:93:3d:6c:84:66:
         99:c0:2d:b1:9d:0b:d7:54:e9:5b:68:a5:2b:ba:e2:f4:0f:b9:
         e0:d4:9c:53:68:62:86:5a:a4:66:3c:29:0e:65:9e:da:0c:63:
         f0:7e:35:3f:51:fe:de:29:c0:c1:67:f0:06:79:34:eb:19:e6:
         b5:19:dd:09:7b:16:99:24:85:d0:cf:26:7c:5e:8e:8d:d0:bf:
         26:78:00:33:f7:4c:3d:cd:1d:4b:05:4b:b5:f6:a6:3e:a5:ba:
         bb:6b:b4:79:87:4b:82:5f:4f:0b:ba:f0:1c:c5:7d:7f:40:cc:
         42:60:f3:8b:c1:e0:eb:70:6b:65:fa:54:0a:5e:56:d6:4d:db:
         a7:cf:2e:40:cd:58:c1:b3:d9:eb:72:88:36:58:2c:f9:3d:38:
         7e:59:da:13
-----BEGIN CERTIFICATE-----
MIID5zCCAs+gAwIBAgIQS9wDkeYIcANBiZ6NMDB5uDANBgkqhkiG9w0BAQ0FADA9
MQswCQYDVQQGEwJJVDENMAsGA1UECgwEQWNtZTENMAsGA1UECwwEQWNtZTEQMA4G
A1UEAwwHVGVzdCBDQTAeFw0xODA4MjcxNDI2MThaFw0yODA1MjYxNDI2MThaMD4x
CzAJBgNVBAYTAklUMQ0wCwYDVQQKDARBY21lMQ0wCwYDVQQLDARBY21lMREwDwYD
VQQDDAhteXNlcnZlcjCCASIwDQYJKoZIhvcNAQEBBQADggEPADCCAQoCggEBAL8n
avVwUiZLM6mcHloVnldaYvry10nQb8IEZrqx2MWH4XaQyim1gHMTvmdVUfweZu/q
kJvb+hrRqwFj6/uikyAZBrAgFA1MeR9ym8aNM08oits3fDn6vKNJxlWdMP7iNHht
+nOC6rjMPnm20GWWSS8hd2dWp0f10UYtmBq5jQAUHPFgwMl0hvUkRMssWFidzfw0
5Ylu4LmC9eNdiscbKmqFwa0j5DnnhovmLTLD/45YjYWL8SvFc9gUJKMt5WLZtITm
NTGzKjTKxlT5Px1X2SoLipZwt2G/j9ULlFy4iCrgF5r7dcVM2smykkS0D/I7Lzyr
JobVNnWFAg59YP0+NUkCAwEAAaOB4TCB3jAMBgNVHRMBAf8EAjAAMBEGCWCGSAGG
+EIBAQQEAwIFoDAdBgNVHQ4EFgQUFmOptKvwqRaxZEKMe5eAPgxH2WUwbQYDVR0j
BGYwZIAUaKm8ZiZZxpP9EuOmH0btg+q06T2hQaQ/MD0xCzAJBgNVBAYTAklUMQ0w
CwYDVQQKDARBY21lMQ0wCwYDVQQLDARBY21lMRAwDgYDVQQDDAdUZXN0IENBggkA
ofYLAM45jvwwHQYDVR0lBBYwFAYIKwYBBQUHAwIGCCsGAQUFBwMEMA4GA1UdDwEB
/wQEAwIE8DANBgkqhkiG9w0BAQ0FAAOCAQEAWK4KxzwA0S61JAf4ugyYfa7cBtSp
qR0806wENVWx3q5+YVCD/RG3bUq7w1k3Uw+SO3yCp+8x4QbNdbPxg/B2bC35X8Qs
d5ej2Rm5Xs9o1qY6BHnw51e+MIz8S1htpuCX+E35wQw5rJM9bIRmmcAtsZ0L11Tp
W2ilK7ri9A+54NScU2hihlqkZjwpDmWe2gxj8H41P1H+3inAwWfwBnk06xnmtRnd
CXsWmSSF0M8mfF6OjdC/JngAM/dMPc0dSwVLtfamPqW6u2u0eYdLgl9PC7rwHMV9
f0DMQmDzi8Hg63BrZfpUCl5W1k3bp88uQM1YwbPZ63KINlgs+T04flnaEw==
-----END CERTIFICATE-----
