Certificate:
    Data:
        Version: 3 (0x2)
        Serial Number: 808 (0x328)
    Signature Algorithm: sha512WithRSAEncryption
        Issuer: C=IT, O=IGI, CN=Test CA
        Validity
            Not Before: Jun 18 10:08:31 2019 GMT
            Not After : Jun 15 10:08:31 2029 GMT
        Subject: C=IT, O=IGI, CN=se.example
        Subject Public Key Info:
            Public Key Algorithm: rsaEncryption
                Public-Key: (2048 bit)
                Modulus:
                    00:d5:23:ee:8f:0c:0a:a9:f4:0e:ee:d1:c3:a6:b3:
                    0f:cb:8e:3e:e3:27:96:1a:6f:03:3f:77:58:2a:d0:
                    53:f8:32:16:dd:3f:48:ca:51:f4:5c:5d:80:d0:73:
                    59:84:32:7c:c2:f0:ff:71:e0:c4:a7:8f:46:a1:21:
                    15:e9:a0:61:08:4e:2f:f5:6f:d2:d0:a0:fa:76:71:
                    7c:b3:29:97:3f:c3:9c:13:a5:6c:59:b3:4f:88:ef:
                    27:59:80:21:0a:b2:55:18:13:6b:00:0e:16:52:2e:
                    7e:5d:5b:75:d6:03:f4:b4:6c:5e:c2:15:4c:dc:fe:
                    ce:16:8a:2c:dc:51:d1:46:2b:c0:8f:28:e4:53:4b:
                    8c:95:e5:97:2d:ce:eb:37:05:4b:46:93:3f:9f:01:
                    ce:86:84:3d:ec:55:a3:46:a4:34:38:83:f7:98:46:
                    ef:c8:9e:72:af:69:cd:06:b6:87:63:95:82:15:c9:
                    ab:04:2b:df:8d:a9:02:0f:6a:f5:bf:c4:56:86:bd:
                    45:b4:28:a9:7d:52:94:a6:5a:75:59:c5:c4:7a:29:
                    43:1c:35:0e:2a:3f:d5:8c:cb:3e:6e:ec:1b:be:e2:
                    9b:e5:80:51:c0:c8:a5:31:e2:76:f9:cc:be:c9:d4:
                    1a:6e:5d:cf:e7:c8:84:59:b3:2d:36:f5:cb:00:b3:
                    5d:fb
                Exponent: 65537 (0x10001)
        X509v3 extensions:
            X509v3 Basic Constraints: critical
                CA:FALSE
            X509v3 Subject Key Identifier: 
                A9:15:5B:EF:92:BB:58:4E:89:8A:8F:31:15:7F:AE:51:65:D3:CB:F9
            X509v3 Key Usage: critical
                Digital Signature, Non Repudiation, Key Encipherment
            X509v3 Extended Key Usage: 
                TLS Web Server Authentication, TLS Web Client Authentication, Microsoft Server Gated Crypto, Netscape Server Gated Crypto, E-mail Protection
            X509v3 Authority Key Identifier: 
                keyid:91:77:36:7B:2E:B4:69:F3:27:EA:B7:F6:08:8B:4A:23:A2:11:49:C6

            X509v3 Subject Alternative Name: 
                DNS:se.example
    Signature Algorithm: sha512WithRSAEncryption
         58:07:59:dd:ed:b3:e2:8f:4d:2f:34:fc:2e:2a:83:f9:86:6a:
         cb:57:c8:47:c7:2d:e8:09:10:f8:cc:42:6f:b9:3a:3e:fe:7d:
         1f:aa:a8:d8:eb:40:5f:dc:3d:ea:ac:fc:4e:d7:2d:a7:49:a1:
         44:de:11:b3:12:2c:3d:1e:ba:7b:82:c0:bf:f6:9b:30:11:a5:
         01:ed:40:4d:a3:52:a1:1b:9e:80:bb:a2:f9:28:f2:aa:b1:13:
         28:62:d4:f7:07:c8:42:3a:c7:9a:c5:56:57:79:78:7e:58:00:
         e5:c1:34:c4:1c:b2:95:03:e0:14:5f:71:01:ce:19:32:23:3f:
         a0:1d:51:e8:4a:81:a7:f2:14:f6:d8:ea:c6:2e:f7:be:56:30:
         1e:54:b4:c8:74:f5:df:96:df:94:b5:68:25:82:e5:e0:fd:1e:
         c9:d3:45:74:3c:01:68:61:dc:3e:02:0c:2d:a7:15:05:13:ee:
         d1:4e:6c:eb:80:c2:e6:1e:7e:c0:e2:3b:0f:6e:b4:3e:f7:6d:
         0e:8e:db:5a:82:28:62:c1:48:ad:71:03:07:c5:9d:74:a6:86:
         4b:70:b5:c9:38:17:aa:f1:f0:4c:4c:30:5a:b7:fd:af:ac:a6:
         58:ec:6b:fb:c1:e4:2c:57:f0:96:8e:c2:7f:1e:a1:b8:d4:38:
         4b:fb:91:ce
-----BEGIN CERTIFICATE-----
MIIDkjCCAnqgAwIBAgICAygwDQYJKoZIhvcNAQENBQAwLTELMAkGA1UEBhMCSVQx
DDAKBgNVBAoMA0lHSTEQMA4GA1UEAwwHVGVzdCBDQTAeFw0xOTA2MTgxMDA4MzFa
Fw0yOTA2MTUxMDA4MzFaMDAxCzAJBgNVBAYTAklUMQwwCgYDVQQKDANJR0kxEzAR
BgNVBAMMCnNlLmV4YW1wbGUwggEiMA0GCSqGSIb3DQEBAQUAA4IBDwAwggEKAoIB
AQDVI+6PDAqp9A7u0cOmsw/Ljj7jJ5YabwM/d1gq0FP4MhbdP0jKUfRcXYDQc1mE
MnzC8P9x4MSnj0ahIRXpoGEITi/1b9LQoPp2cXyzKZc/w5wTpWxZs0+I7ydZgCEK
slUYE2sADhZSLn5dW3XWA/S0bF7CFUzc/s4WiizcUdFGK8CPKORTS4yV5Zctzus3
BUtGkz+fAc6GhD3sVaNGpDQ4g/eYRu/InnKvac0GtodjlYIVyasEK9+NqQIPavW/
xFaGvUW0KKl9UpSmWnVZxcR6KUMcNQ4qP9WMyz5u7Bu+4pvlgFHAyKUx4nb5zL7J
1BpuXc/nyIRZsy029csAs137AgMBAAGjgbgwgbUwDAYDVR0TAQH/BAIwADAdBgNV
HQ4EFgQUqRVb75K7WE6Jio8xFX+uUWXTy/kwDgYDVR0PAQH/BAQDAgXgMD4GA1Ud
JQQ3MDUGCCsGAQUFBwMBBggrBgEFBQcDAgYKKwYBBAGCNwoDAwYJYIZIAYb4QgQB
BggrBgEFBQcDBDAfBgNVHSMEGDAWgBSRdzZ7LrRp8yfqt/YIi0ojohFJxjAVBgNV
HREEDjAMggpzZS5leGFtcGxlMA0GCSqGSIb3DQEBDQUAA4IBAQBYB1nd7bPij00v
NPwuKoP5hmrLV8hHxy3oCRD4zEJvuTo+/n0fqqjY60Bf3D3qrPxO1y2nSaFE3hGz
Eiw9Hrp7gsC/9pswEaUB7UBNo1KhG56Au6L5KPKqsRMoYtT3B8hCOseaxVZXeXh+
WADlwTTEHLKVA+AUX3EBzhkyIz+gHVHoSoGn8hT22OrGLve+VjAeVLTIdPXflt+U
tWglguXg/R7J00V0PAFoYdw+AgwtpxUFE+7RTmzrgMLmHn7A4jsPbrQ+920Ojtta
gihiwUitcQMHxZ10poZLcLXJOBeq8fBMTDBat/2vrKZY7Gv7weQsV/CWjsJ/HqG4
1DhL+5HO
-----END CERTIFICATE-----
